; Function Attrs: mustprogress uwtable
define internal fastcc noundef zeroext i1 @_ZN4ofbxL13parseArrayRawIdEEbRKNS_8PropertyEPT_i(ptr noundef nonnull align 8 dereferenceable(48) %0, ptr noundef %1, i32 noundef %2) unnamed_addr #8 {
  %4 = alloca %struct.mz_stream_s, align 8
  %5 = getelementptr inbounds i8, ptr %0, i64 16
  %6 = getelementptr inbounds i8, ptr %0, i64 32
  %7 = load i8, ptr %6, align 8
  %8 = and i8 %7, 1
  %.not = icmp eq i8 %8, 0
  br i1 %.not, label %50, label %9

9:                                                ; preds = %3
  %10 = getelementptr inbounds i8, ptr %0, i64 12
  %11 = load i8, ptr %10, align 4
  %switch.tableidx = add i8 %11, -100
  %12 = icmp ult i8 %switch.tableidx, 9
  br i1 %12, label %switch.hole_check, label %_ZN4ofbxL17parseTextArrayRawIdEEbRKNS_8PropertyEPT_i.exit

switch.hole_check:                                ; preds = %9
  %switch.maskindex = zext nneg i8 %switch.tableidx to i16
  %switch.shifted = lshr i16 293, %switch.maskindex
  %13 = and i16 %switch.shifted, 1
  %switch.lobit.not = icmp eq i16 %13, 0
  br i1 %switch.lobit.not, label %_ZN4ofbxL17parseTextArrayRawIdEEbRKNS_8PropertyEPT_i.exit, label %switch.lookup

switch.lookup:                                    ; preds = %switch.hole_check
  %14 = zext nneg i8 %switch.tableidx to i64
  %switch.gep = getelementptr inbounds [9 x i32], ptr @switch.table._ZN4ofbxL13parseArrayRawINS_6MatrixEEEbRKNS_8PropertyEPT_i, i64 0, i64 %14
  %switch.load = load i32, ptr %switch.gep, align 4
  %15 = load ptr, ptr %5, align 8
  %16 = getelementptr inbounds i8, ptr %15, i64 12
  %17 = getelementptr inbounds i8, ptr %0, i64 24
  %18 = load ptr, ptr %17, align 8
  %19 = icmp ugt ptr %16, %18
  br i1 %19, label %_ZN4ofbxL17parseTextArrayRawIdEEbRKNS_8PropertyEPT_i.exit, label %20

20:                                               ; preds = %switch.lookup
  %21 = load ptr, ptr %0, align 8
  %22 = getelementptr inbounds i8, ptr %21, i64 40
  %23 = load ptr, ptr %22, align 8
  %24 = tail call noundef i32 %23(ptr noundef nonnull align 8 dereferenceable(48) %0)
  %25 = load ptr, ptr %5, align 8
  %26 = getelementptr inbounds i8, ptr %25, i64 4
  %27 = load i32, ptr %26, align 4
  %28 = getelementptr inbounds i8, ptr %25, i64 8
  %29 = load i32, ptr %28, align 4
  switch i32 %27, label %_ZN4ofbxL17parseTextArrayRawIdEEbRKNS_8PropertyEPT_i.exit [
    i32 0, label %30
    i32 1, label %38
  ]

30:                                               ; preds = %20
  %31 = icmp sgt i32 %29, %2
  br i1 %31, label %_ZN4ofbxL17parseTextArrayRawIdEEbRKNS_8PropertyEPT_i.exit, label %32

32:                                               ; preds = %30
  %33 = zext i32 %29 to i64
  %34 = getelementptr inbounds i8, ptr %16, i64 %33
  %35 = load ptr, ptr %17, align 8
  %36 = icmp ugt ptr %34, %35
  br i1 %36, label %_ZN4ofbxL17parseTextArrayRawIdEEbRKNS_8PropertyEPT_i.exit, label %37

37:                                               ; preds = %32
  tail call void @llvm.memcpy.p0.p0.i64(ptr align 8 %1, ptr nonnull align 1 %16, i64 %33, i1 false)
  br label %_ZN4ofbxL17parseTextArrayRawIdEEbRKNS_8PropertyEPT_i.exit

38:                                               ; preds = %20
  %39 = mul i32 %24, %switch.load
  %40 = icmp sgt i32 %39, %2
  br i1 %40, label %_ZN4ofbxL17parseTextArrayRawIdEEbRKNS_8PropertyEPT_i.exit, label %41

41:                                               ; preds = %38
  call void @llvm.lifetime.start.p0(i64 112, ptr nonnull %4)
  call void @llvm.memset.p0.i64(ptr noundef nonnull align 8 dereferenceable(112) %4, i8 0, i64 112, i1 false)
  %42 = call i32 @mz_inflateInit(ptr noundef nonnull %4)
  %43 = getelementptr inbounds i8, ptr %4, i64 8
  store i32 %29, ptr %43, align 8
  store ptr %16, ptr %4, align 8
  %44 = getelementptr inbounds i8, ptr %4, i64 32
  store i32 %39, ptr %44, align 8
  %45 = getelementptr inbounds i8, ptr %4, i64 24
  store ptr %1, ptr %45, align 8
  %46 = call i32 @mz_inflate(ptr noundef nonnull %4, i32 noundef 2)
  %.not.i = icmp eq i32 %46, 1
  br i1 %.not.i, label %47, label %_ZN4ofbxL10decompressEPKhmPhm.exit

47:                                               ; preds = %41
  %48 = call i32 @mz_inflateEnd(ptr noundef nonnull %4)
  %49 = icmp eq i32 %48, 0
  br label %_ZN4ofbxL10decompressEPKhmPhm.exit

_ZN4ofbxL10decompressEPKhmPhm.exit:               ; preds = %41, %47
  %.0.i = phi i1 [ %49, %47 ], [ false, %41 ]
  call void @llvm.lifetime.end.p0(i64 112, ptr nonnull %4)
  br label %_ZN4ofbxL17parseTextArrayRawIdEEbRKNS_8PropertyEPT_i.exit

50:                                               ; preds = %3
  %51 = load ptr, ptr %5, align 8
  %52 = getelementptr inbounds i8, ptr %0, i64 24
  %53 = ptrtoint ptr %1 to i64
  %54 = sext i32 %2 to i64
  %55 = lshr i64 %54, 3
  br label %56

56:                                               ; preds = %_ZN4ofbx10fromStringIdEEPKcS2_S2_PT_.exit.i, %50
  %.014.i = phi ptr [ %51, %50 ], [ %spec.select.i.i, %_ZN4ofbx10fromStringIdEEPKcS2_S2_PT_.exit.i ]
  %.0.i34 = phi ptr [ %1, %50 ], [ %68, %_ZN4ofbx10fromStringIdEEPKcS2_S2_PT_.exit.i ]
  %57 = load ptr, ptr %52, align 8
  %58 = icmp ult ptr %.014.i, %57
  br i1 %58, label %.lr.ph.preheader.i.i, label %73

.lr.ph.preheader.i.i:                             ; preds = %56
  %59 = tail call double @atof(ptr noundef %.014.i) #30
  store double %59, ptr %.0.i34, align 8
  %60 = ptrtoint ptr %57 to i64
  %61 = ptrtoint ptr %.014.i to i64
  %62 = sub i64 %60, %61
  %scevgep.i.i = getelementptr i8, ptr %.014.i, i64 %62
  %63 = load i8, ptr %.014.i, align 1
  %.not.i18.i = icmp eq i8 %63, 44
  br i1 %.not.i18.i, label %_ZN4ofbx10fromStringIdEEPKcS2_S2_PT_.exit.i, label %.lr.ph.i

.lr.ph.i.i:                                       ; preds = %.lr.ph.i
  %64 = load i8, ptr %65, align 1
  %.not.i.i = icmp eq i8 %64, 44
  br i1 %.not.i.i, label %_ZN4ofbx10fromStringIdEEPKcS2_S2_PT_.exit.loopexit.i, label %.lr.ph.i, !llvm.loop !12

.lr.ph.i:                                         ; preds = %.lr.ph.preheader.i.i, %.lr.ph.i.i
  %.011.i19.i = phi ptr [ %65, %.lr.ph.i.i ], [ %.014.i, %.lr.ph.preheader.i.i ]
  %65 = getelementptr inbounds i8, ptr %.011.i19.i, i64 1
  %exitcond.not.i.i = icmp eq ptr %65, %57
  br i1 %exitcond.not.i.i, label %_ZN4ofbx10fromStringIdEEPKcS2_S2_PT_.exit.loopexit.i, label %.lr.ph.i.i, !llvm.loop !12

_ZN4ofbx10fromStringIdEEPKcS2_S2_PT_.exit.loopexit.i: ; preds = %.lr.ph.i, %.lr.ph.i.i
  %.lcssa = phi ptr [ %scevgep.i.i, %.lr.ph.i ], [ %65, %.lr.ph.i.i ]
  %66 = icmp ult ptr %.lcssa, %57
  br label %_ZN4ofbx10fromStringIdEEPKcS2_S2_PT_.exit.i

_ZN4ofbx10fromStringIdEEPKcS2_S2_PT_.exit.i:      ; preds = %_ZN4ofbx10fromStringIdEEPKcS2_S2_PT_.exit.loopexit.i, %.lr.ph.preheader.i.i
  %.0.lcssa.ph.i.i = phi ptr [ %.014.i, %.lr.ph.preheader.i.i ], [ %.lcssa, %_ZN4ofbx10fromStringIdEEPKcS2_S2_PT_.exit.loopexit.i ]
  %.lcssa.ph.i.i = phi i1 [ true, %.lr.ph.preheader.i.i ], [ %66, %_ZN4ofbx10fromStringIdEEPKcS2_S2_PT_.exit.loopexit.i ]
  %67 = zext i1 %.lcssa.ph.i.i to i64
  %spec.select.i.i = getelementptr inbounds i8, ptr %.0.lcssa.ph.i.i, i64 %67
  %68 = getelementptr inbounds i8, ptr %.0.i34, i64 8
  %69 = ptrtoint ptr %68 to i64
  %70 = sub i64 %69, %53
  %71 = ashr exact i64 %70, 3
  %72 = icmp eq i64 %71, %55
  br i1 %72, label %_ZN4ofbxL17parseTextArrayRawIdEEbRKNS_8PropertyEPT_i.exit, label %56, !llvm.loop !207

73:                                               ; preds = %56
  %74 = ptrtoint ptr %.0.i34 to i64
  %75 = sub i64 %74, %53
  %76 = ashr exact i64 %75, 3
  %77 = icmp eq i64 %76, %55
  br label %_ZN4ofbxL17parseTextArrayRawIdEEbRKNS_8PropertyEPT_i.exit

_ZN4ofbxL17parseTextArrayRawIdEEbRKNS_8PropertyEPT_i.exit: ; preds = %_ZN4ofbx10fromStringIdEEPKcS2_S2_PT_.exit.i, %switch.hole_check, %9, %73, %20, %38, %32, %30, %switch.lookup, %_ZN4ofbxL10decompressEPKhmPhm.exit, %37
  %.0 = phi i1 [ true, %37 ], [ %.0.i, %_ZN4ofbxL10decompressEPKhmPhm.exit ], [ false, %9 ], [ false, %switch.lookup ], [ false, %30 ], [ false, %32 ], [ false, %38 ], [ false, %20 ], [ %77, %73 ], [ false, %switch.hole_check ], [ true, %_ZN4ofbx10fromStringIdEEPKcS2_S2_PT_.exit.i ]
  ret i1 %.0
}